target datalayout = "e-m:e-p270:32:32-p271:32:32-p272:64:64-i64:64-i128:128-f80:128-n8:16:32:64-S128"
target triple = "x86_64-pc-linux-gnu"

@envtbl = internal global i64 0, align 8
@.str.101 = private unnamed_addr constant [40 x i8] c"block supersedes default value argument\00", align 1
@.str.118 = private unnamed_addr constant [5 x i8] c"name\00", align 1
@.str.121 = private unnamed_addr constant [22 x i8] c"key not found: \22%li\0B\22\00", align 1

; Function Attrs: inlinehint nounwind sspstrong willreturn memory(none) uwtable
define internal zeroext i1 @RB_NIL_P(i64 noundef %0) #5 {
  %2 = alloca i64, align 8
  store i64 %0, ptr %2, align 8, !tbaa !7
  %3 = load i64, ptr %2, align 8, !tbaa !7
  %4 = icmp eq i64 %3, 4
  ret i1 %4
}

; Function Attrs: inlinehint nounwind sspstrong uwtable
define internal ptr @env_name(ptr noundef %0) #2 {
  %2 = alloca ptr, align 8
  %3 = alloca ptr, align 8
  store ptr %0, ptr %2, align 8, !tbaa !11
  call void @llvm.lifetime.start.p0(i64 8, ptr %3) #28
  %4 = load ptr, ptr %2, align 8, !tbaa !11
  %5 = call i64 @rb_string_value(ptr noundef %4)
  %6 = load ptr, ptr %2, align 8, !tbaa !11
  %7 = load volatile i64, ptr %6, align 8, !tbaa !7
  %8 = call ptr @get_env_cstr(i64 noundef %7, ptr noundef @.str.118)
  store ptr %8, ptr %3, align 8, !tbaa !14
  %9 = load ptr, ptr %3, align 8, !tbaa !14
  call void @llvm.lifetime.end.p0(i64 8, ptr %3) #28
  ret ptr %9
}

; Function Attrs: inlinehint nounwind sspstrong uwtable
define internal i32 @rb_check_arity(i32 noundef %0, i32 noundef %1, i32 noundef %2) #2 {
  %4 = alloca i32, align 4
  %5 = alloca i32, align 4
  %6 = alloca i32, align 4
  store i32 %0, ptr %4, align 4, !tbaa !16
  store i32 %1, ptr %5, align 4, !tbaa !16
  store i32 %2, ptr %6, align 4, !tbaa !16
  %7 = load i32, ptr %4, align 4, !tbaa !16
  %8 = load i32, ptr %5, align 4, !tbaa !16
  %9 = icmp slt i32 %7, %8
  br i1 %9, label %17, label %10

10:                                               ; preds = %3
  %11 = load i32, ptr %6, align 4, !tbaa !16
  %12 = icmp ne i32 %11, -1
  br i1 %12, label %13, label %21

13:                                               ; preds = %10
  %14 = load i32, ptr %4, align 4, !tbaa !16
  %15 = load i32, ptr %6, align 4, !tbaa !16
  %16 = icmp sgt i32 %14, %15
  br i1 %16, label %17, label %21

17:                                               ; preds = %13, %3
  %18 = load i32, ptr %4, align 4, !tbaa !16
  %19 = load i32, ptr %5, align 4, !tbaa !16
  %20 = load i32, ptr %6, align 4, !tbaa !16
  call void @rb_error_arity(i32 noundef %18, i32 noundef %19, i32 noundef %20) #30
  unreachable

21:                                               ; preds = %13, %10
  %22 = load i32, ptr %4, align 4, !tbaa !16
  ret i32 %22
}

; Function Attrs: nounwind sspstrong uwtable
define internal i64 @env_fetch(i32 noundef %0, ptr noundef %1, i64 noundef %2) #0 {
  %4 = alloca i64, align 8
  %5 = alloca i32, align 4
  %6 = alloca ptr, align 8
  %7 = alloca i64, align 8
  %8 = alloca i64, align 8
  %9 = alloca i64, align 8
  %10 = alloca ptr, align 8
  %11 = alloca i64, align 8
  %12 = alloca i32, align 4
  store i32 %0, ptr %5, align 4, !tbaa !16
  store ptr %1, ptr %6, align 8, !tbaa !11
  store i64 %2, ptr %7, align 8, !tbaa !7
  call void @llvm.lifetime.start.p0(i64 8, ptr %8) #28
  call void @llvm.lifetime.start.p0(i64 8, ptr %9) #28
  call void @llvm.lifetime.start.p0(i64 8, ptr %10) #28
  call void @llvm.lifetime.start.p0(i64 8, ptr %11) #28
  %13 = load i32, ptr %5, align 4, !tbaa !16
  %14 = call i32 @rb_check_arity(i32 noundef %13, i32 noundef 1, i32 noundef 2)
  %15 = load ptr, ptr %6, align 8, !tbaa !11
  %16 = getelementptr i64, ptr %15, i64 0
  %17 = load i64, ptr %16, align 8, !tbaa !7
  store i64 %17, ptr %8, align 8, !tbaa !7
  %18 = call i32 @rb_block_given_p()
  %19 = sext i32 %18 to i64
  store i64 %19, ptr %9, align 8, !tbaa !7
  %20 = load i64, ptr %9, align 8, !tbaa !7
  %21 = icmp ne i64 %20, 0
  br i1 %21, label %22, label %26

22:                                               ; preds = %3
  %23 = load i32, ptr %5, align 4, !tbaa !16
  %24 = icmp eq i32 %23, 2
  br i1 %24, label %25, label %26

25:                                               ; preds = %22
  call void (ptr, ...) @rb_warn(ptr noundef @.str.101) #31
  br label %26

26:                                               ; preds = %25, %22, %3
  %27 = call ptr @env_name(ptr noundef %8)
  store ptr %27, ptr %10, align 8, !tbaa !14
  %28 = load ptr, ptr %10, align 8, !tbaa !14
  %29 = call i64 @getenv_with_lock(ptr noundef %28)
  store i64 %29, ptr %11, align 8, !tbaa !7
  %30 = load i64, ptr %11, align 8, !tbaa !7
  %31 = call zeroext i1 @RB_NIL_P(i64 noundef %30) #27
  br i1 %31, label %32, label %50

32:                                               ; preds = %26
  %33 = load i64, ptr %9, align 8, !tbaa !7
  %34 = icmp ne i64 %33, 0
  br i1 %34, label %35, label %38

35:                                               ; preds = %32
  %36 = load i64, ptr %8, align 8, !tbaa !7
  %37 = call i64 @rb_yield(i64 noundef %36)
  store i64 %37, ptr %4, align 8
  store i32 1, ptr %12, align 4
  br label %52

38:                                               ; preds = %32
  %39 = load i32, ptr %5, align 4, !tbaa !16
  %40 = icmp eq i32 %39, 1
  br i1 %40, label %41, label %46

41:                                               ; preds = %38
  %42 = load i64, ptr %8, align 8, !tbaa !7
  %43 = call i64 (ptr, ...) @rb_sprintf(ptr noundef @.str.121, i64 noundef %42)
  %44 = load i64, ptr @envtbl, align 8, !tbaa !7
  %45 = load i64, ptr %8, align 8, !tbaa !7
  call void @rb_key_err_raise(i64 noundef %43, i64 noundef %44, i64 noundef %45) #30
  unreachable

46:                                               ; preds = %38
  %47 = load ptr, ptr %6, align 8, !tbaa !11
  %48 = getelementptr i64, ptr %47, i64 1
  %49 = load i64, ptr %48, align 8, !tbaa !7
  store i64 %49, ptr %4, align 8
  store i32 1, ptr %12, align 4
  br label %52

50:                                               ; preds = %26
  %51 = load i64, ptr %11, align 8, !tbaa !7
  store i64 %51, ptr %4, align 8
  store i32 1, ptr %12, align 4
  br label %52

52:                                               ; preds = %50, %46, %35
  call void @llvm.lifetime.end.p0(i64 8, ptr %11) #28
  call void @llvm.lifetime.end.p0(i64 8, ptr %10) #28
  call void @llvm.lifetime.end.p0(i64 8, ptr %9) #28
  call void @llvm.lifetime.end.p0(i64 8, ptr %8) #28
  %53 = load i64, ptr %4, align 8
  ret i64 %53
}