; Function Attrs: nounwind sspstrong uwtable
define internal i64 @env_fetch(i32 noundef %0, ptr noundef readonly captures(none) %1, i64 %2) #0 {
  %4 = alloca i64, align 8
  call void @llvm.lifetime.start.p0(i64 8, ptr nonnull %4) #28
  %5 = add i32 %0, -3
  %or.cond11 = icmp ult i32 %5, -2
  br i1 %or.cond11, label %6, label %rb_check_arity.exit

6:                                                ; preds = %3
  tail call void @rb_error_arity(i32 noundef %0, i32 noundef 1, i32 noundef 2) #30
  unreachable

rb_check_arity.exit:                              ; preds = %3
  %7 = load i64, ptr %1, align 8, !tbaa !7
  store i64 %7, ptr %4, align 8, !tbaa !7
  %8 = tail call i32 @rb_block_given_p() #28
  %9 = icmp ne i32 %8, 0
  %10 = icmp eq i32 %0, 2
  %or.cond = and i1 %10, %9
  br i1 %or.cond, label %11, label %12

11:                                               ; preds = %rb_check_arity.exit
  tail call void (ptr, ...) @rb_warn(ptr noundef nonnull @.str.101) #31
  br label %12

12:                                               ; preds = %11, %rb_check_arity.exit
  %13 = call i64 @rb_string_value(ptr noundef nonnull %4) #28
  %14 = load volatile i64, ptr %4, align 8, !tbaa !7
  %15 = call fastcc ptr @get_env_cstr(i64 noundef %14, ptr noundef nonnull @.str.118)
  %16 = call fastcc i64 @getenv_with_lock(ptr noundef %15)
  %17 = icmp eq i64 %16, 4
  br i1 %17, label %18, label %32

18:                                               ; preds = %12
  br i1 %9, label %19, label %22

19:                                               ; preds = %18
  %20 = load i64, ptr %4, align 8, !tbaa !7
  %21 = call i64 @rb_yield(i64 noundef %20) #28
  br label %32

22:                                               ; preds = %18
  %23 = icmp eq i32 %0, 1
  br i1 %23, label %24, label %29

24:                                               ; preds = %22
  %25 = load i64, ptr %4, align 8, !tbaa !7
  %26 = call i64 (ptr, ...) @rb_sprintf(ptr noundef nonnull @.str.121, i64 noundef %25) #28
  %27 = load i64, ptr @envtbl, align 8, !tbaa !7
  %28 = load i64, ptr %4, align 8, !tbaa !7
  call fastcc void @rb_key_err_raise(i64 noundef %26, i64 noundef %27, i64 noundef %28) #32
  unreachable

29:                                               ; preds = %22
  %30 = getelementptr i8, ptr %1, i64 8
  %31 = load i64, ptr %30, align 8, !tbaa !7
  br label %32

32:                                               ; preds = %12, %29, %19
  %.0 = phi i64 [ %21, %19 ], [ %31, %29 ], [ %16, %12 ]
  call void @llvm.lifetime.end.p0(i64 8, ptr nonnull %4) #28
  ret i64 %.0
}